; Function Attrs: nounwind uwtable
define hidden void @zim_php_user_filter_onCreate(ptr nocapture noundef readonly %0, ptr nocapture noundef writeonly %1) #0 {
  %3 = getelementptr inbounds i8, ptr %0, i64 44
  %4 = load i32, ptr %3, align 4
  %.not = icmp eq i32 %4, 0
  br i1 %.not, label %6, label %5

5:                                                ; preds = %2
  tail call void @zend_wrong_parameters_none_error() #11
  br label %8

6:                                                ; preds = %2
  %7 = getelementptr inbounds i8, ptr %1, i64 8
  store i32 3, ptr %7, align 8
  br label %8

8:                                                ; preds = %6, %5
  ret void
}